target datalayout = "e-m:e-p270:32:32-p271:32:32-p272:64:64-i64:64-i128:128-f80:128-n8:16:32:64-S128"
target triple = "x86_64-pc-linux-gnu"

%"class.std::__cxx11::basic_string" = type { %"struct.std::__cxx11::basic_string<char>::_Alloc_hider", i64, %union.anon }
%"struct.std::__cxx11::basic_string<char>::_Alloc_hider" = type { ptr }
%union.anon = type { i64, [8 x i8] }
%class.Attribute = type <{ ptr, %"class.std::__cxx11::basic_string", i32, [4 x i8] }>

@_ZTV9Attribute = linkonce_odr dso_local unnamed_addr constant { [3 x ptr] } { [3 x ptr] [ptr null, ptr @_ZTI9Attribute, ptr @__cxa_pure_virtual] }, comdat, align 8
@_ZTV16BooleanAttribute = dso_local unnamed_addr constant { [3 x ptr] } { [3 x ptr] [ptr null, ptr @_ZTI16BooleanAttribute, ptr @_ZN16BooleanAttribute11make_randomB5cxx11Ev] }, align 8

; Function Attrs: mustprogress uwtable
define dso_local void @_ZN9AttributeC2ENSt7__cxx1112basic_stringIcSt11char_traitsIcESaIcEEEi(ptr noundef nonnull align 8 dereferenceable(44) %0, ptr noundef %1, i32 noundef %2) unnamed_addr #0 align 2 {
  %4 = alloca ptr, align 8
  %5 = alloca ptr, align 8
  %6 = alloca i32, align 4
  store ptr %0, ptr %4, align 8
  store ptr %1, ptr %5, align 8
  store i32 %2, ptr %6, align 4
  %7 = load ptr, ptr %4, align 8
  store ptr getelementptr inbounds ({ [3 x ptr] }, ptr @_ZTV9Attribute, i32 0, i32 0, i32 2), ptr %7, align 8
  %8 = getelementptr inbounds %class.Attribute, ptr %7, i32 0, i32 1
  call void @_ZNSt7__cxx1112basic_stringIcSt11char_traitsIcESaIcEEC1ERKS4_(ptr noundef nonnull align 8 dereferenceable(32) %8, ptr noundef nonnull align 8 dereferenceable(32) %1)
  %9 = getelementptr inbounds %class.Attribute, ptr %7, i32 0, i32 2
  %10 = load i32, ptr %6, align 4
  store i32 %10, ptr %9, align 8
  ret void
}

; Function Attrs: mustprogress uwtable
define dso_local void @_ZN16BooleanAttributeC2ENSt7__cxx1112basic_stringIcSt11char_traitsIcESaIcEEEi(ptr noundef nonnull align 8 dereferenceable(44) %0, ptr noundef %1, i32 noundef %2) unnamed_addr #0 align 2 personality ptr @__gxx_personality_v0 {
  %4 = alloca ptr, align 8
  %5 = alloca ptr, align 8
  %6 = alloca i32, align 4
  %7 = alloca %"class.std::__cxx11::basic_string", align 8
  %8 = alloca ptr, align 8
  %9 = alloca i32, align 4
  store ptr %0, ptr %4, align 8
  store ptr %1, ptr %5, align 8
  store i32 %2, ptr %6, align 4
  %10 = load ptr, ptr %4, align 8
  call void @_ZNSt7__cxx1112basic_stringIcSt11char_traitsIcESaIcEEC1ERKS4_(ptr noundef nonnull align 8 dereferenceable(32) %7, ptr noundef nonnull align 8 dereferenceable(32) %1)
  %11 = load i32, ptr %6, align 4
  invoke void @_ZN9AttributeC2ENSt7__cxx1112basic_stringIcSt11char_traitsIcESaIcEEEi(ptr noundef nonnull align 8 dereferenceable(44) %10, ptr noundef %7, i32 noundef %11)
          to label %12 unwind label %13

12:                                               ; preds = %3
  call void @_ZNSt7__cxx1112basic_stringIcSt11char_traitsIcESaIcEED1Ev(ptr noundef nonnull align 8 dereferenceable(32) %7) #10
  store ptr getelementptr inbounds ({ [3 x ptr] }, ptr @_ZTV16BooleanAttribute, i32 0, i32 0, i32 2), ptr %10, align 8
  ret void

13:                                               ; preds = %3
  %14 = landingpad { ptr, i32 }
          cleanup
  %15 = extractvalue { ptr, i32 } %14, 0
  store ptr %15, ptr %8, align 8
  %16 = extractvalue { ptr, i32 } %14, 1
  store i32 %16, ptr %9, align 4
  call void @_ZNSt7__cxx1112basic_stringIcSt11char_traitsIcESaIcEED1Ev(ptr noundef nonnull align 8 dereferenceable(32) %7) #10
  br label %17

17:                                               ; preds = %13
  %18 = load ptr, ptr %8, align 8
  %19 = load i32, ptr %9, align 4
  %20 = insertvalue { ptr, i32 } poison, ptr %18, 0
  %21 = insertvalue { ptr, i32 } %20, i32 %19, 1
  resume { ptr, i32 } %21
}