; Function Attrs: mustprogress uwtable
define dso_local void @_ZN16BooleanAttributeC2ENSt7__cxx1112basic_stringIcSt11char_traitsIcESaIcEEEi(ptr noundef nonnull align 8 dereferenceable(44) %0, ptr noundef nonnull %1, i32 noundef %2) unnamed_addr #0 align 2 personality ptr @__gxx_personality_v0 {
  %4 = alloca %"class.std::__cxx11::basic_string", align 8
  call void @_ZNSt7__cxx1112basic_stringIcSt11char_traitsIcESaIcEEC1ERKS4_(ptr noundef nonnull align 8 dereferenceable(32) %4, ptr noundef nonnull align 8 dereferenceable(32) %1)
  store ptr getelementptr inbounds ({ [3 x ptr] }, ptr @_ZTV9Attribute, i64 0, i32 0, i64 2), ptr %0, align 8
  %5 = getelementptr inbounds i8, ptr %0, i64 8
  invoke void @_ZNSt7__cxx1112basic_stringIcSt11char_traitsIcESaIcEEC1ERKS4_(ptr noundef nonnull align 8 dereferenceable(32) %5, ptr noundef nonnull align 8 dereferenceable(32) %4)
          to label %6 unwind label %8

6:                                                ; preds = %3
  %7 = getelementptr inbounds i8, ptr %0, i64 40
  store i32 %2, ptr %7, align 8
  call void @_ZNSt7__cxx1112basic_stringIcSt11char_traitsIcESaIcEED1Ev(ptr noundef nonnull align 8 dereferenceable(32) %4) #8
  store ptr getelementptr inbounds ({ [3 x ptr] }, ptr @_ZTV16BooleanAttribute, i64 0, i32 0, i64 2), ptr %0, align 8
  ret void

8:                                                ; preds = %3
  %9 = landingpad { ptr, i32 }
          cleanup
  call void @_ZNSt7__cxx1112basic_stringIcSt11char_traitsIcESaIcEED1Ev(ptr noundef nonnull align 8 dereferenceable(32) %4) #8
  resume { ptr, i32 } %9
}